target datalayout = "e-m:e-p270:32:32-p271:32:32-p272:64:64-i64:64-i128:128-f80:128-n8:16:32:64-S128"
target triple = "x86_64-pc-linux-gnu"

%struct.OSQPVectorf_ = type { ptr, i64 }

; Function Attrs: nounwind uwtable
define void @OSQPVectorf_mult_scalar(ptr noundef %0, double noundef %1) #0 {
  %3 = alloca ptr, align 8
  %4 = alloca double, align 8
  %5 = alloca i64, align 8
  %6 = alloca i64, align 8
  %7 = alloca ptr, align 8
  store ptr %0, ptr %3, align 8
  store double %1, ptr %4, align 8
  %8 = load ptr, ptr %3, align 8
  %9 = getelementptr inbounds %struct.OSQPVectorf_, ptr %8, i32 0, i32 1
  %10 = load i64, ptr %9, align 8
  store i64 %10, ptr %6, align 8
  %11 = load ptr, ptr %3, align 8
  %12 = getelementptr inbounds %struct.OSQPVectorf_, ptr %11, i32 0, i32 0
  %13 = load ptr, ptr %12, align 8
  store ptr %13, ptr %7, align 8
  store i64 0, ptr %5, align 8
  br label %14

14:                                               ; preds = %25, %2
  %15 = load i64, ptr %5, align 8
  %16 = load i64, ptr %6, align 8
  %17 = icmp slt i64 %15, %16
  br i1 %17, label %18, label %28

18:                                               ; preds = %14
  %19 = load double, ptr %4, align 8
  %20 = load ptr, ptr %7, align 8
  %21 = load i64, ptr %5, align 8
  %22 = getelementptr inbounds double, ptr %20, i64 %21
  %23 = load double, ptr %22, align 8
  %24 = fmul double %23, %19
  store double %24, ptr %22, align 8
  br label %25

25:                                               ; preds = %18
  %26 = load i64, ptr %5, align 8
  %27 = add nsw i64 %26, 1
  store i64 %27, ptr %5, align 8
  br label %14, !llvm.loop !19

28:                                               ; preds = %14
  ret void
}